target datalayout = "e-m:e-p270:32:32-p271:32:32-p272:64:64-i64:64-i128:128-f80:128-n8:16:32:64-S128"
target triple = "x86_64-pc-linux-gnu"

%struct.AVBSFContext = type { ptr, ptr, ptr, ptr, ptr, %struct.AVRational, %struct.AVRational }
%struct.AVRational = type { i32, i32 }
%struct.FFBSFContext = type { %struct.AVBSFContext, ptr, i32 }
%struct.AVPacket = type { ptr, i64, i64, ptr, i32, i32, i32, ptr, i32, i64, i64, ptr, ptr, %struct.AVRational }

; Function Attrs: alwaysinline nounwind uwtable
define internal ptr @ffbsfcontext(ptr noundef %0) #2 {
  %2 = alloca ptr, align 8
  store ptr %0, ptr %2, align 8, !tbaa !10
  %3 = load ptr, ptr %2, align 8, !tbaa !10
  ret ptr %3
}

; Function Attrs: nounwind uwtable
define i32 @ff_bsf_get_packet_ref(ptr noundef %0, ptr noundef %1) #0 {
  %3 = alloca i32, align 4
  %4 = alloca ptr, align 8
  %5 = alloca ptr, align 8
  %6 = alloca ptr, align 8
  %7 = alloca i32, align 4
  store ptr %0, ptr %4, align 8, !tbaa !10
  store ptr %1, ptr %5, align 8, !tbaa !57
  call void @llvm.lifetime.start.p0(i64 8, ptr %6) #6
  %8 = load ptr, ptr %4, align 8, !tbaa !10
  %9 = call ptr @ffbsfcontext(ptr noundef %8)
  store ptr %9, ptr %6, align 8, !tbaa !12
  %10 = load ptr, ptr %6, align 8, !tbaa !12
  %11 = getelementptr inbounds nuw %struct.FFBSFContext, ptr %10, i32 0, i32 2
  %12 = load i32, ptr %11, align 8, !tbaa !55
  %13 = icmp ne i32 %12, 0
  br i1 %13, label %14, label %15

14:                                               ; preds = %2
  store i32 -541478725, ptr %3, align 4
  store i32 1, ptr %7, align 4
  br label %35

15:                                               ; preds = %2
  %16 = load ptr, ptr %6, align 8, !tbaa !12
  %17 = getelementptr inbounds nuw %struct.FFBSFContext, ptr %16, i32 0, i32 1
  %18 = load ptr, ptr %17, align 8, !tbaa !34
  %19 = getelementptr inbounds nuw %struct.AVPacket, ptr %18, i32 0, i32 3
  %20 = load ptr, ptr %19, align 8, !tbaa !58
  %21 = icmp ne ptr %20, null
  br i1 %21, label %30, label %22

22:                                               ; preds = %15
  %23 = load ptr, ptr %6, align 8, !tbaa !12
  %24 = getelementptr inbounds nuw %struct.FFBSFContext, ptr %23, i32 0, i32 1
  %25 = load ptr, ptr %24, align 8, !tbaa !34
  %26 = getelementptr inbounds nuw %struct.AVPacket, ptr %25, i32 0, i32 8
  %27 = load i32, ptr %26, align 8, !tbaa !61
  %28 = icmp ne i32 %27, 0
  br i1 %28, label %30, label %29

29:                                               ; preds = %22
  store i32 -11, ptr %3, align 4
  store i32 1, ptr %7, align 4
  br label %35

30:                                               ; preds = %22, %15
  %31 = load ptr, ptr %5, align 8, !tbaa !57
  %32 = load ptr, ptr %6, align 8, !tbaa !12
  %33 = getelementptr inbounds nuw %struct.FFBSFContext, ptr %32, i32 0, i32 1
  %34 = load ptr, ptr %33, align 8, !tbaa !34
  call void @av_packet_move_ref(ptr noundef %31, ptr noundef %34)
  store i32 0, ptr %3, align 4
  store i32 1, ptr %7, align 4
  br label %35

35:                                               ; preds = %30, %29, %14
  call void @llvm.lifetime.end.p0(i64 8, ptr %6) #6
  %36 = load i32, ptr %3, align 4
  ret i32 %36
}