; Function Attrs: nounwind uwtable
define range(i32 -541478725, 1) i32 @ff_bsf_get_packet_ref(ptr noundef readonly captures(none) %0, ptr noundef %1) local_unnamed_addr #0 {
  %3 = getelementptr inbounds nuw i8, ptr %0, i64 64
  %4 = load i32, ptr %3, align 8, !tbaa !47
  %.not = icmp eq i32 %4, 0
  br i1 %.not, label %5, label %14

5:                                                ; preds = %2
  %6 = getelementptr inbounds nuw i8, ptr %0, i64 56
  %7 = load ptr, ptr %6, align 8, !tbaa !27
  %8 = getelementptr inbounds nuw i8, ptr %7, i64 24
  %9 = load ptr, ptr %8, align 8, !tbaa !49
  %.not6 = icmp eq ptr %9, null
  br i1 %.not6, label %10, label %13

10:                                               ; preds = %5
  %11 = getelementptr inbounds nuw i8, ptr %7, i64 56
  %12 = load i32, ptr %11, align 8, !tbaa !52
  %.not7 = icmp eq i32 %12, 0
  br i1 %.not7, label %14, label %13

13:                                               ; preds = %10, %5
  tail call void @av_packet_move_ref(ptr noundef %1, ptr noundef nonnull %7) #6
  br label %14

14:                                               ; preds = %10, %2, %13
  %.0 = phi i32 [ 0, %13 ], [ -541478725, %2 ], [ -11, %10 ]
  ret i32 %.0
}